#include <math.h>
#include <stdio.h>
#include <stdlib.h>
#include <string.h>

int main()
{
	int a[9][9],b[9][9],i,j,k,m,n;
	for(i=0;i<9;i++)
	{
		for(j=0;j<9;j++)
		{
			a[i][j]=0;
			b[i][j]=0;
		}
	}
	scanf("%d %d",&m,&n);
	a[4][4]=m;
	b[4][4]=m;
	for(k=0;k<n;k++)
	{
		for(i=0;i<9;i++)
		{
			for(j=0;j<9;j++)
			{
				if(a[i][j]!=0)
				{
					b[i][j]+=a[i][j];
					b[i][j-1]+=a[i][j];
					b[i][j+1]+=a[i][j];
					b[i-1][j]+=a[i][j];
					b[i+1][j]+=a[i][j];
					b[i-1][j-1]+=a[i][j];
					b[i-1][j+1]+=a[i][j];
					b[i+1][j-1]+=a[i][j];
					b[i+1][j+1]+=a[i][j]; 
				}
			}
		}
	  for(i=0;i<9;i++)
		  for(j=0;j<9;j++)
			a[i][j]=b[i][j];
	}
	for(i=0;i<9;i++)
	{
		for(j=0;j<8;j++)
		{
			printf("%d ",b[i][j]);
			
		}
     	printf("%d",b[i][8]);
			
	
		printf("\n");
	}
	
	return 0;
}
