; ModuleID = '48/1594.c'
source_filename = "48/1594.c"
target datalayout = "e-m:e-p270:32:32-p271:32:32-p272:64:64-i64:64-f80:128-n8:16:32:64-S128"
target triple = "x86_64-pc-linux-gnu"

@.str = private unnamed_addr constant [6 x i8] c"%d %d\00", align 1
@.str.1 = private unnamed_addr constant [4 x i8] c"%d \00", align 1
@.str.2 = private unnamed_addr constant [3 x i8] c"%d\00", align 1
@.str.3 = private unnamed_addr constant [2 x i8] c"\0A\00", align 1

; Function Attrs: noinline nounwind uwtable
define dso_local i32 @main() #0 {
  %1 = alloca i32, align 4
  %2 = alloca [9 x [9 x i32]], align 16
  %3 = alloca [9 x [9 x i32]], align 16
  %4 = alloca i32, align 4
  %5 = alloca i32, align 4
  %6 = alloca i32, align 4
  %7 = alloca i32, align 4
  %8 = alloca i32, align 4
  store i32 0, i32* %1, align 4
  store i32 0, i32* %4, align 4
  br label %9

9:                                                ; preds = %33, %0
  %10 = load i32, i32* %4, align 4
  %11 = icmp slt i32 %10, 9
  br i1 %11, label %12, label %36

12:                                               ; preds = %9
  store i32 0, i32* %5, align 4
  br label %13

13:                                               ; preds = %29, %12
  %14 = load i32, i32* %5, align 4
  %15 = icmp slt i32 %14, 9
  br i1 %15, label %16, label %32

16:                                               ; preds = %13
  %17 = load i32, i32* %4, align 4
  %18 = sext i32 %17 to i64
  %19 = getelementptr inbounds [9 x [9 x i32]], [9 x [9 x i32]]* %2, i64 0, i64 %18
  %20 = load i32, i32* %5, align 4
  %21 = sext i32 %20 to i64
  %22 = getelementptr inbounds [9 x i32], [9 x i32]* %19, i64 0, i64 %21
  store i32 0, i32* %22, align 4
  %23 = load i32, i32* %4, align 4
  %24 = sext i32 %23 to i64
  %25 = getelementptr inbounds [9 x [9 x i32]], [9 x [9 x i32]]* %3, i64 0, i64 %24
  %26 = load i32, i32* %5, align 4
  %27 = sext i32 %26 to i64
  %28 = getelementptr inbounds [9 x i32], [9 x i32]* %25, i64 0, i64 %27
  store i32 0, i32* %28, align 4
  br label %29

29:                                               ; preds = %16
  %30 = load i32, i32* %5, align 4
  %31 = add nsw i32 %30, 1
  store i32 %31, i32* %5, align 4
  br label %13

32:                                               ; preds = %13
  br label %33

33:                                               ; preds = %32
  %34 = load i32, i32* %4, align 4
  %35 = add nsw i32 %34, 1
  store i32 %35, i32* %4, align 4
  br label %9

36:                                               ; preds = %9
  %37 = call i32 (i8*, ...) @__isoc99_scanf(i8* getelementptr inbounds ([6 x i8], [6 x i8]* @.str, i64 0, i64 0), i32* %7, i32* %8)
  %38 = load i32, i32* %7, align 4
  %39 = getelementptr inbounds [9 x [9 x i32]], [9 x [9 x i32]]* %2, i64 0, i64 4
  %40 = getelementptr inbounds [9 x i32], [9 x i32]* %39, i64 0, i64 4
  store i32 %38, i32* %40, align 16
  %41 = load i32, i32* %7, align 4
  %42 = getelementptr inbounds [9 x [9 x i32]], [9 x [9 x i32]]* %3, i64 0, i64 4
  %43 = getelementptr inbounds [9 x i32], [9 x i32]* %42, i64 0, i64 4
  store i32 %41, i32* %43, align 16
  store i32 0, i32* %6, align 4
  br label %44

44:                                               ; preds = %251, %36
  %45 = load i32, i32* %6, align 4
  %46 = load i32, i32* %8, align 4
  %47 = icmp slt i32 %45, %46
  br i1 %47, label %48, label %254

48:                                               ; preds = %44
  store i32 0, i32* %4, align 4
  br label %49

49:                                               ; preds = %218, %48
  %50 = load i32, i32* %4, align 4
  %51 = icmp slt i32 %50, 9
  br i1 %51, label %52, label %221

52:                                               ; preds = %49
  store i32 0, i32* %5, align 4
  br label %53

53:                                               ; preds = %214, %52
  %54 = load i32, i32* %5, align 4
  %55 = icmp slt i32 %54, 9
  br i1 %55, label %56, label %217

56:                                               ; preds = %53
  %57 = load i32, i32* %4, align 4
  %58 = sext i32 %57 to i64
  %59 = getelementptr inbounds [9 x [9 x i32]], [9 x [9 x i32]]* %2, i64 0, i64 %58
  %60 = load i32, i32* %5, align 4
  %61 = sext i32 %60 to i64
  %62 = getelementptr inbounds [9 x i32], [9 x i32]* %59, i64 0, i64 %61
  %63 = load i32, i32* %62, align 4
  %64 = icmp ne i32 %63, 0
  br i1 %64, label %65, label %213

65:                                               ; preds = %56
  %66 = load i32, i32* %4, align 4
  %67 = sext i32 %66 to i64
  %68 = getelementptr inbounds [9 x [9 x i32]], [9 x [9 x i32]]* %2, i64 0, i64 %67
  %69 = load i32, i32* %5, align 4
  %70 = sext i32 %69 to i64
  %71 = getelementptr inbounds [9 x i32], [9 x i32]* %68, i64 0, i64 %70
  %72 = load i32, i32* %71, align 4
  %73 = load i32, i32* %4, align 4
  %74 = sext i32 %73 to i64
  %75 = getelementptr inbounds [9 x [9 x i32]], [9 x [9 x i32]]* %3, i64 0, i64 %74
  %76 = load i32, i32* %5, align 4
  %77 = sext i32 %76 to i64
  %78 = getelementptr inbounds [9 x i32], [9 x i32]* %75, i64 0, i64 %77
  %79 = load i32, i32* %78, align 4
  %80 = add nsw i32 %79, %72
  store i32 %80, i32* %78, align 4
  %81 = load i32, i32* %4, align 4
  %82 = sext i32 %81 to i64
  %83 = getelementptr inbounds [9 x [9 x i32]], [9 x [9 x i32]]* %2, i64 0, i64 %82
  %84 = load i32, i32* %5, align 4
  %85 = sext i32 %84 to i64
  %86 = getelementptr inbounds [9 x i32], [9 x i32]* %83, i64 0, i64 %85
  %87 = load i32, i32* %86, align 4
  %88 = load i32, i32* %4, align 4
  %89 = sext i32 %88 to i64
  %90 = getelementptr inbounds [9 x [9 x i32]], [9 x [9 x i32]]* %3, i64 0, i64 %89
  %91 = load i32, i32* %5, align 4
  %92 = sub nsw i32 %91, 1
  %93 = sext i32 %92 to i64
  %94 = getelementptr inbounds [9 x i32], [9 x i32]* %90, i64 0, i64 %93
  %95 = load i32, i32* %94, align 4
  %96 = add nsw i32 %95, %87
  store i32 %96, i32* %94, align 4
  %97 = load i32, i32* %4, align 4
  %98 = sext i32 %97 to i64
  %99 = getelementptr inbounds [9 x [9 x i32]], [9 x [9 x i32]]* %2, i64 0, i64 %98
  %100 = load i32, i32* %5, align 4
  %101 = sext i32 %100 to i64
  %102 = getelementptr inbounds [9 x i32], [9 x i32]* %99, i64 0, i64 %101
  %103 = load i32, i32* %102, align 4
  %104 = load i32, i32* %4, align 4
  %105 = sext i32 %104 to i64
  %106 = getelementptr inbounds [9 x [9 x i32]], [9 x [9 x i32]]* %3, i64 0, i64 %105
  %107 = load i32, i32* %5, align 4
  %108 = add nsw i32 %107, 1
  %109 = sext i32 %108 to i64
  %110 = getelementptr inbounds [9 x i32], [9 x i32]* %106, i64 0, i64 %109
  %111 = load i32, i32* %110, align 4
  %112 = add nsw i32 %111, %103
  store i32 %112, i32* %110, align 4
  %113 = load i32, i32* %4, align 4
  %114 = sext i32 %113 to i64
  %115 = getelementptr inbounds [9 x [9 x i32]], [9 x [9 x i32]]* %2, i64 0, i64 %114
  %116 = load i32, i32* %5, align 4
  %117 = sext i32 %116 to i64
  %118 = getelementptr inbounds [9 x i32], [9 x i32]* %115, i64 0, i64 %117
  %119 = load i32, i32* %118, align 4
  %120 = load i32, i32* %4, align 4
  %121 = sub nsw i32 %120, 1
  %122 = sext i32 %121 to i64
  %123 = getelementptr inbounds [9 x [9 x i32]], [9 x [9 x i32]]* %3, i64 0, i64 %122
  %124 = load i32, i32* %5, align 4
  %125 = sext i32 %124 to i64
  %126 = getelementptr inbounds [9 x i32], [9 x i32]* %123, i64 0, i64 %125
  %127 = load i32, i32* %126, align 4
  %128 = add nsw i32 %127, %119
  store i32 %128, i32* %126, align 4
  %129 = load i32, i32* %4, align 4
  %130 = sext i32 %129 to i64
  %131 = getelementptr inbounds [9 x [9 x i32]], [9 x [9 x i32]]* %2, i64 0, i64 %130
  %132 = load i32, i32* %5, align 4
  %133 = sext i32 %132 to i64
  %134 = getelementptr inbounds [9 x i32], [9 x i32]* %131, i64 0, i64 %133
  %135 = load i32, i32* %134, align 4
  %136 = load i32, i32* %4, align 4
  %137 = add nsw i32 %136, 1
  %138 = sext i32 %137 to i64
  %139 = getelementptr inbounds [9 x [9 x i32]], [9 x [9 x i32]]* %3, i64 0, i64 %138
  %140 = load i32, i32* %5, align 4
  %141 = sext i32 %140 to i64
  %142 = getelementptr inbounds [9 x i32], [9 x i32]* %139, i64 0, i64 %141
  %143 = load i32, i32* %142, align 4
  %144 = add nsw i32 %143, %135
  store i32 %144, i32* %142, align 4
  %145 = load i32, i32* %4, align 4
  %146 = sext i32 %145 to i64
  %147 = getelementptr inbounds [9 x [9 x i32]], [9 x [9 x i32]]* %2, i64 0, i64 %146
  %148 = load i32, i32* %5, align 4
  %149 = sext i32 %148 to i64
  %150 = getelementptr inbounds [9 x i32], [9 x i32]* %147, i64 0, i64 %149
  %151 = load i32, i32* %150, align 4
  %152 = load i32, i32* %4, align 4
  %153 = sub nsw i32 %152, 1
  %154 = sext i32 %153 to i64
  %155 = getelementptr inbounds [9 x [9 x i32]], [9 x [9 x i32]]* %3, i64 0, i64 %154
  %156 = load i32, i32* %5, align 4
  %157 = sub nsw i32 %156, 1
  %158 = sext i32 %157 to i64
  %159 = getelementptr inbounds [9 x i32], [9 x i32]* %155, i64 0, i64 %158
  %160 = load i32, i32* %159, align 4
  %161 = add nsw i32 %160, %151
  store i32 %161, i32* %159, align 4
  %162 = load i32, i32* %4, align 4
  %163 = sext i32 %162 to i64
  %164 = getelementptr inbounds [9 x [9 x i32]], [9 x [9 x i32]]* %2, i64 0, i64 %163
  %165 = load i32, i32* %5, align 4
  %166 = sext i32 %165 to i64
  %167 = getelementptr inbounds [9 x i32], [9 x i32]* %164, i64 0, i64 %166
  %168 = load i32, i32* %167, align 4
  %169 = load i32, i32* %4, align 4
  %170 = sub nsw i32 %169, 1
  %171 = sext i32 %170 to i64
  %172 = getelementptr inbounds [9 x [9 x i32]], [9 x [9 x i32]]* %3, i64 0, i64 %171
  %173 = load i32, i32* %5, align 4
  %174 = add nsw i32 %173, 1
  %175 = sext i32 %174 to i64
  %176 = getelementptr inbounds [9 x i32], [9 x i32]* %172, i64 0, i64 %175
  %177 = load i32, i32* %176, align 4
  %178 = add nsw i32 %177, %168
  store i32 %178, i32* %176, align 4
  %179 = load i32, i32* %4, align 4
  %180 = sext i32 %179 to i64
  %181 = getelementptr inbounds [9 x [9 x i32]], [9 x [9 x i32]]* %2, i64 0, i64 %180
  %182 = load i32, i32* %5, align 4
  %183 = sext i32 %182 to i64
  %184 = getelementptr inbounds [9 x i32], [9 x i32]* %181, i64 0, i64 %183
  %185 = load i32, i32* %184, align 4
  %186 = load i32, i32* %4, align 4
  %187 = add nsw i32 %186, 1
  %188 = sext i32 %187 to i64
  %189 = getelementptr inbounds [9 x [9 x i32]], [9 x [9 x i32]]* %3, i64 0, i64 %188
  %190 = load i32, i32* %5, align 4
  %191 = sub nsw i32 %190, 1
  %192 = sext i32 %191 to i64
  %193 = getelementptr inbounds [9 x i32], [9 x i32]* %189, i64 0, i64 %192
  %194 = load i32, i32* %193, align 4
  %195 = add nsw i32 %194, %185
  store i32 %195, i32* %193, align 4
  %196 = load i32, i32* %4, align 4
  %197 = sext i32 %196 to i64
  %198 = getelementptr inbounds [9 x [9 x i32]], [9 x [9 x i32]]* %2, i64 0, i64 %197
  %199 = load i32, i32* %5, align 4
  %200 = sext i32 %199 to i64
  %201 = getelementptr inbounds [9 x i32], [9 x i32]* %198, i64 0, i64 %200
  %202 = load i32, i32* %201, align 4
  %203 = load i32, i32* %4, align 4
  %204 = add nsw i32 %203, 1
  %205 = sext i32 %204 to i64
  %206 = getelementptr inbounds [9 x [9 x i32]], [9 x [9 x i32]]* %3, i64 0, i64 %205
  %207 = load i32, i32* %5, align 4
  %208 = add nsw i32 %207, 1
  %209 = sext i32 %208 to i64
  %210 = getelementptr inbounds [9 x i32], [9 x i32]* %206, i64 0, i64 %209
  %211 = load i32, i32* %210, align 4
  %212 = add nsw i32 %211, %202
  store i32 %212, i32* %210, align 4
  br label %213

213:                                              ; preds = %65, %56
  br label %214

214:                                              ; preds = %213
  %215 = load i32, i32* %5, align 4
  %216 = add nsw i32 %215, 1
  store i32 %216, i32* %5, align 4
  br label %53

217:                                              ; preds = %53
  br label %218

218:                                              ; preds = %217
  %219 = load i32, i32* %4, align 4
  %220 = add nsw i32 %219, 1
  store i32 %220, i32* %4, align 4
  br label %49

221:                                              ; preds = %49
  store i32 0, i32* %4, align 4
  br label %222

222:                                              ; preds = %247, %221
  %223 = load i32, i32* %4, align 4
  %224 = icmp slt i32 %223, 9
  br i1 %224, label %225, label %250

225:                                              ; preds = %222
  store i32 0, i32* %5, align 4
  br label %226

226:                                              ; preds = %243, %225
  %227 = load i32, i32* %5, align 4
  %228 = icmp slt i32 %227, 9
  br i1 %228, label %229, label %246

229:                                              ; preds = %226
  %230 = load i32, i32* %4, align 4
  %231 = sext i32 %230 to i64
  %232 = getelementptr inbounds [9 x [9 x i32]], [9 x [9 x i32]]* %3, i64 0, i64 %231
  %233 = load i32, i32* %5, align 4
  %234 = sext i32 %233 to i64
  %235 = getelementptr inbounds [9 x i32], [9 x i32]* %232, i64 0, i64 %234
  %236 = load i32, i32* %235, align 4
  %237 = load i32, i32* %4, align 4
  %238 = sext i32 %237 to i64
  %239 = getelementptr inbounds [9 x [9 x i32]], [9 x [9 x i32]]* %2, i64 0, i64 %238
  %240 = load i32, i32* %5, align 4
  %241 = sext i32 %240 to i64
  %242 = getelementptr inbounds [9 x i32], [9 x i32]* %239, i64 0, i64 %241
  store i32 %236, i32* %242, align 4
  br label %243

243:                                              ; preds = %229
  %244 = load i32, i32* %5, align 4
  %245 = add nsw i32 %244, 1
  store i32 %245, i32* %5, align 4
  br label %226

246:                                              ; preds = %226
  br label %247

247:                                              ; preds = %246
  %248 = load i32, i32* %4, align 4
  %249 = add nsw i32 %248, 1
  store i32 %249, i32* %4, align 4
  br label %222

250:                                              ; preds = %222
  br label %251

251:                                              ; preds = %250
  %252 = load i32, i32* %6, align 4
  %253 = add nsw i32 %252, 1
  store i32 %253, i32* %6, align 4
  br label %44

254:                                              ; preds = %44
  store i32 0, i32* %4, align 4
  br label %255

255:                                              ; preds = %282, %254
  %256 = load i32, i32* %4, align 4
  %257 = icmp slt i32 %256, 9
  br i1 %257, label %258, label %285

258:                                              ; preds = %255
  store i32 0, i32* %5, align 4
  br label %259

259:                                              ; preds = %271, %258
  %260 = load i32, i32* %5, align 4
  %261 = icmp slt i32 %260, 8
  br i1 %261, label %262, label %274

262:                                              ; preds = %259
  %263 = load i32, i32* %4, align 4
  %264 = sext i32 %263 to i64
  %265 = getelementptr inbounds [9 x [9 x i32]], [9 x [9 x i32]]* %3, i64 0, i64 %264
  %266 = load i32, i32* %5, align 4
  %267 = sext i32 %266 to i64
  %268 = getelementptr inbounds [9 x i32], [9 x i32]* %265, i64 0, i64 %267
  %269 = load i32, i32* %268, align 4
  %270 = call i32 (i8*, ...) @printf(i8* getelementptr inbounds ([4 x i8], [4 x i8]* @.str.1, i64 0, i64 0), i32 %269)
  br label %271

271:                                              ; preds = %262
  %272 = load i32, i32* %5, align 4
  %273 = add nsw i32 %272, 1
  store i32 %273, i32* %5, align 4
  br label %259

274:                                              ; preds = %259
  %275 = load i32, i32* %4, align 4
  %276 = sext i32 %275 to i64
  %277 = getelementptr inbounds [9 x [9 x i32]], [9 x [9 x i32]]* %3, i64 0, i64 %276
  %278 = getelementptr inbounds [9 x i32], [9 x i32]* %277, i64 0, i64 8
  %279 = load i32, i32* %278, align 4
  %280 = call i32 (i8*, ...) @printf(i8* getelementptr inbounds ([3 x i8], [3 x i8]* @.str.2, i64 0, i64 0), i32 %279)
  %281 = call i32 (i8*, ...) @printf(i8* getelementptr inbounds ([2 x i8], [2 x i8]* @.str.3, i64 0, i64 0))
  br label %282

282:                                              ; preds = %274
  %283 = load i32, i32* %4, align 4
  %284 = add nsw i32 %283, 1
  store i32 %284, i32* %4, align 4
  br label %255

285:                                              ; preds = %255
  ret i32 0
}

declare dso_local i32 @__isoc99_scanf(i8*, ...) #1

declare dso_local i32 @printf(i8*, ...) #1


!llvm.module.flags = !{!0}
!llvm.ident = !{!1}

!0 = !{i32 1, !"wchar_size", i32 4}
!1 = !{!"clang version 10.0.0-4ubuntu1 "}
